; Function Attrs: alwaysinline norecurse nounwind ssp uwtable
define internal void @"_ZN6open3d4core15ParallelForCPU_IZZZNS_1t8geometry6kernel10pointcloud39EstimateCovariancesUsingRadiusSearchCPUERKNS0_6TensorERS6_RKdENK3$_0clEvENKUlvE0_clEvEUllE_EEvRKNS0_6DeviceElRKT_.omp_outlined"(ptr noalias noundef readonly captures(none) %0, ptr noalias readnone captures(none) %1, ptr noundef nonnull readonly align 8 captures(none) dereferenceable(8) %2, ptr noundef nonnull readonly align 8 captures(none) dereferenceable(32) %3) #25 personality ptr @__gxx_personality_v0 {
  %5 = alloca i32, align 4
  %6 = alloca i64, align 8
  %7 = alloca i64, align 8
  %8 = alloca i64, align 8
  %9 = alloca i32, align 4
  %10 = load i64, ptr %2, align 8, !tbaa !8
  %11 = icmp sgt i64 %10, 0
  br i1 %11, label %12, label %37

12:                                               ; preds = %4
  %13 = add nsw i64 %10, -1
  call void @llvm.lifetime.start.p0(i64 8, ptr nonnull %6) #26
  store i64 0, ptr %6, align 8, !tbaa !8
  call void @llvm.lifetime.start.p0(i64 8, ptr nonnull %7) #26
  store i64 %13, ptr %7, align 8, !tbaa !8
  call void @llvm.lifetime.start.p0(i64 8, ptr nonnull %8) #26
  store i64 1, ptr %8, align 8, !tbaa !8
  call void @llvm.lifetime.start.p0(i64 4, ptr nonnull %9) #26
  store i32 0, ptr %9, align 4, !tbaa !34
  %14 = load i32, ptr %0, align 4, !tbaa !34
  call void @__kmpc_for_static_init_8(ptr nonnull @1, i32 %14, i32 34, ptr nonnull %9, ptr nonnull %6, ptr nonnull %7, ptr nonnull %8, i64 1, i64 1)
  %15 = load i64, ptr %7, align 8, !tbaa !8
  %16 = call i64 @llvm.smin.i64(i64 %15, i64 %13)
  store i64 %16, ptr %7, align 8, !tbaa !8
  %17 = load i64, ptr %6, align 8, !tbaa !8
  %.not13 = icmp sgt i64 %17, %16
  br i1 %.not13, label %._crit_edge, label %.lr.ph

.lr.ph:                                           ; preds = %12
  %18 = getelementptr inbounds nuw i8, ptr %3, i64 8
  %19 = getelementptr inbounds nuw i8, ptr %3, i64 16
  %20 = getelementptr inbounds nuw i8, ptr %3, i64 24
  br label %21

21:                                               ; preds = %.lr.ph, %21
  %.014 = phi i64 [ %17, %.lr.ph ], [ %35, %21 ]
  %22 = load ptr, ptr %3, align 8, !tbaa !1078
  %23 = getelementptr inbounds i32, ptr %22, i64 %.014
  %24 = load i32, ptr %23, align 4, !tbaa !34
  call void @llvm.lifetime.start.p0(i64 4, ptr nonnull %5) #26
  %25 = getelementptr i8, ptr %23, i64 4
  %26 = load i32, ptr %25, align 4, !tbaa !34
  %27 = sub nsw i32 %26, %24
  store i32 %27, ptr %5, align 4, !tbaa !34
  %28 = load ptr, ptr %18, align 8, !tbaa !1080
  %29 = load ptr, ptr %19, align 8, !tbaa !1081
  %30 = sext i32 %24 to i64
  %31 = getelementptr inbounds i32, ptr %29, i64 %30
  %32 = load ptr, ptr %20, align 8, !tbaa !1082
  %sext.i = mul i64 %.014, 38654705664
  %33 = ashr exact i64 %sext.i, 29
  %34 = getelementptr inbounds i8, ptr %32, i64 %33
  call void @_ZN6open3d1t8geometry6kernel10pointcloud49EstimatePointWiseRobustNormalizedCovarianceKernelIdEEvPKT_PKiRS8_PS5_(ptr noundef %28, ptr noundef %31, ptr noundef nonnull align 4 dereferenceable(4) %5, ptr noundef %34)
  call void @llvm.lifetime.end.p0(i64 4, ptr nonnull %5) #26
  %35 = add nsw i64 %.014, 1
  %36 = load i64, ptr %7, align 8, !tbaa !8
  %.not.not = icmp slt i64 %.014, %36
  br i1 %.not.not, label %21, label %._crit_edge

._crit_edge:                                      ; preds = %21, %12
  call void @__kmpc_for_static_fini(ptr nonnull @1, i32 %14)
  call void @llvm.lifetime.end.p0(i64 4, ptr nonnull %9) #26
  call void @llvm.lifetime.end.p0(i64 8, ptr nonnull %8) #26
  call void @llvm.lifetime.end.p0(i64 8, ptr nonnull %7) #26
  call void @llvm.lifetime.end.p0(i64 8, ptr nonnull %6) #26
  br label %37

37:                                               ; preds = %._crit_edge, %4
  ret void
}